ccopy_reg
_reconstructor
p0
(csensor_msgs.msg._CameraInfo
CameraInfo
p1
c__builtin__
object
p2
Ntp3
Rp4
(lp5
g0
(cstd_msgs.msg._Header
Header
p6
g2
Ntp7
Rp8
(lp9
I6353
ag0
(cgenpy.rostime
Time
p10
g2
Ntp11
Rp12
(lp13
I1546984928
aI851249926
abaS'head_camera_rgb_optical_frame'
p14
abaI480
aI640
aS'plumb_bob'
p15
a(F0.0
F0.0
F0.0
F0.0
F0.0
tp16
a(F527.3832438782704
F0.0
F321.4049125168518
F0.0
F522.0312397162392
F235.1715324470779
F0.0
F0.0
F1.0
tp17
a(F1.0
F0.0
F0.0
F0.0
F1.0
F0.0
F0.0
F0.0
F1.0
tp18
a(F527.3832438782704
F0.0
F321.4049125168518
F0.0
F0.0
F522.0312397162392
F235.1715324470779
F0.0
F0.0
F0.0
F1.0
F0.0
tp19
aI0
aI0
ag0
(csensor_msgs.msg._RegionOfInterest
RegionOfInterest
p20
g2
Ntp21
Rp22
(lp23
I0
aI0
aI0
aI0
aI00
abab.